target datalayout = "e-m:e-p270:32:32-p271:32:32-p272:64:64-i64:64-i128:128-f80:128-n8:16:32:64-S128"
target triple = "x86_64-pc-linux-gnu"

%struct.UConverter = type { ptr, ptr, ptr, ptr, ptr, ptr, ptr, i32, i8, i8, i8, i8, i8, [7 x i8], i32, i32, i32, i32, i8, i8, i8, i8, i8, i8, i8, i8, [8 x i8], [32 x i8], [2 x i16], [2 x i16], [32 x i16], i32, [19 x i16], [31 x i8], i8, i8, i8, i32 }
%struct.UConverterDataCompoundText = type { [20 x ptr], i32 }
%struct.USetAdder = type { ptr, ptr, ptr, ptr, ptr, ptr }

; Function Attrs: mustprogress uwtable
define internal void @_ZL27_CompoundText_GetUnicodeSetPK10UConverterPK9USetAdder20UConverterUnicodeSetP10UErrorCode(ptr noundef %0, ptr noundef %1, i32 noundef %2, ptr noundef %3) #0 {
  %5 = alloca ptr, align 8
  %6 = alloca ptr, align 8
  %7 = alloca i32, align 4
  %8 = alloca ptr, align 8
  %9 = alloca ptr, align 8
  %10 = alloca i32, align 4
  store ptr %0, ptr %5, align 8, !tbaa !3
  store ptr %1, ptr %6, align 8, !tbaa !67
  store i32 %2, ptr %7, align 4, !tbaa !69
  store ptr %3, ptr %8, align 8, !tbaa !8
  call void @llvm.lifetime.start.p0(i64 8, ptr %9) #10
  %11 = load ptr, ptr %5, align 8, !tbaa !3
  %12 = getelementptr inbounds nuw %struct.UConverter, ptr %11, i32 0, i32 2
  %13 = load ptr, ptr %12, align 8, !tbaa !9
  store ptr %13, ptr %9, align 8, !tbaa !8
  call void @llvm.lifetime.start.p0(i64 4, ptr %10) #10
  store i32 1, ptr %10, align 4, !tbaa !24
  br label %14

14:                                               ; preds = %27, %4
  %15 = load i32, ptr %10, align 4, !tbaa !24
  %16 = icmp slt i32 %15, 20
  br i1 %16, label %17, label %30

17:                                               ; preds = %14
  %18 = load ptr, ptr %9, align 8, !tbaa !8
  %19 = getelementptr inbounds nuw %struct.UConverterDataCompoundText, ptr %18, i32 0, i32 0
  %20 = load i32, ptr %10, align 4, !tbaa !24
  %21 = sext i32 %20 to i64
  %22 = getelementptr inbounds [20 x ptr], ptr %19, i64 0, i64 %21
  %23 = load ptr, ptr %22, align 8, !tbaa !15
  %24 = load ptr, ptr %6, align 8, !tbaa !67
  %25 = load i32, ptr %7, align 4, !tbaa !69
  %26 = load ptr, ptr %8, align 8, !tbaa !8
  call void @ucnv_MBCSGetUnicodeSetForUnicode_77(ptr noundef %23, ptr noundef %24, i32 noundef %25, ptr noundef %26)
  br label %27

27:                                               ; preds = %17
  %28 = load i32, ptr %10, align 4, !tbaa !24
  %29 = add nsw i32 %28, 1
  store i32 %29, ptr %10, align 4, !tbaa !24
  br label %14, !llvm.loop !71

30:                                               ; preds = %14
  %31 = load ptr, ptr %6, align 8, !tbaa !67
  %32 = getelementptr inbounds nuw %struct.USetAdder, ptr %31, i32 0, i32 1
  %33 = load ptr, ptr %32, align 8, !tbaa !72
  %34 = load ptr, ptr %6, align 8, !tbaa !67
  %35 = getelementptr inbounds nuw %struct.USetAdder, ptr %34, i32 0, i32 0
  %36 = load ptr, ptr %35, align 8, !tbaa !75
  call void %33(ptr noundef %36, i32 noundef 0)
  %37 = load ptr, ptr %6, align 8, !tbaa !67
  %38 = getelementptr inbounds nuw %struct.USetAdder, ptr %37, i32 0, i32 1
  %39 = load ptr, ptr %38, align 8, !tbaa !72
  %40 = load ptr, ptr %6, align 8, !tbaa !67
  %41 = getelementptr inbounds nuw %struct.USetAdder, ptr %40, i32 0, i32 0
  %42 = load ptr, ptr %41, align 8, !tbaa !75
  call void %39(ptr noundef %42, i32 noundef 9)
  %43 = load ptr, ptr %6, align 8, !tbaa !67
  %44 = getelementptr inbounds nuw %struct.USetAdder, ptr %43, i32 0, i32 1
  %45 = load ptr, ptr %44, align 8, !tbaa !72
  %46 = load ptr, ptr %6, align 8, !tbaa !67
  %47 = getelementptr inbounds nuw %struct.USetAdder, ptr %46, i32 0, i32 0
  %48 = load ptr, ptr %47, align 8, !tbaa !75
  call void %45(ptr noundef %48, i32 noundef 10)
  %49 = load ptr, ptr %6, align 8, !tbaa !67
  %50 = getelementptr inbounds nuw %struct.USetAdder, ptr %49, i32 0, i32 2
  %51 = load ptr, ptr %50, align 8, !tbaa !76
  %52 = load ptr, ptr %6, align 8, !tbaa !67
  %53 = getelementptr inbounds nuw %struct.USetAdder, ptr %52, i32 0, i32 0
  %54 = load ptr, ptr %53, align 8, !tbaa !75
  call void %51(ptr noundef %54, i32 noundef 32, i32 noundef 127)
  %55 = load ptr, ptr %6, align 8, !tbaa !67
  %56 = getelementptr inbounds nuw %struct.USetAdder, ptr %55, i32 0, i32 2
  %57 = load ptr, ptr %56, align 8, !tbaa !76
  %58 = load ptr, ptr %6, align 8, !tbaa !67
  %59 = getelementptr inbounds nuw %struct.USetAdder, ptr %58, i32 0, i32 0
  %60 = load ptr, ptr %59, align 8, !tbaa !75
  call void %57(ptr noundef %60, i32 noundef 160, i32 noundef 255)
  call void @llvm.lifetime.end.p0(i64 4, ptr %10) #10
  call void @llvm.lifetime.end.p0(i64 8, ptr %9) #10
  ret void
}