; Function Attrs: mustprogress uwtable
define internal void @_ZL27_CompoundText_GetUnicodeSetPK10UConverterPK9USetAdder20UConverterUnicodeSetP10UErrorCode(ptr noundef readonly captures(none) %0, ptr noundef %1, i32 noundef %2, ptr noundef %3) #0 {
  %5 = getelementptr inbounds nuw i8, ptr %0, i64 16
  %6 = load ptr, ptr %5, align 8, !tbaa !3
  br label %7

7:                                                ; preds = %4, %7
  %indvars.iv = phi i64 [ 1, %4 ], [ %indvars.iv.next, %7 ]
  %8 = getelementptr inbounds nuw [20 x ptr], ptr %6, i64 0, i64 %indvars.iv
  %9 = load ptr, ptr %8, align 8, !tbaa !12
  tail call void @ucnv_MBCSGetUnicodeSetForUnicode_77(ptr noundef %9, ptr noundef %1, i32 noundef %2, ptr noundef %3)
  %indvars.iv.next = add nuw nsw i64 %indvars.iv, 1
  %exitcond.not = icmp eq i64 %indvars.iv.next, 20
  br i1 %exitcond.not, label %10, label %7, !llvm.loop !63

10:                                               ; preds = %7
  %11 = getelementptr inbounds nuw i8, ptr %1, i64 8
  %12 = load ptr, ptr %11, align 8, !tbaa !64
  %13 = load ptr, ptr %1, align 8, !tbaa !67
  tail call void %12(ptr noundef %13, i32 noundef 0)
  %14 = load ptr, ptr %11, align 8, !tbaa !64
  %15 = load ptr, ptr %1, align 8, !tbaa !67
  tail call void %14(ptr noundef %15, i32 noundef 9)
  %16 = load ptr, ptr %11, align 8, !tbaa !64
  %17 = load ptr, ptr %1, align 8, !tbaa !67
  tail call void %16(ptr noundef %17, i32 noundef 10)
  %18 = getelementptr inbounds nuw i8, ptr %1, i64 16
  %19 = load ptr, ptr %18, align 8, !tbaa !68
  %20 = load ptr, ptr %1, align 8, !tbaa !67
  tail call void %19(ptr noundef %20, i32 noundef 32, i32 noundef 127)
  %21 = load ptr, ptr %18, align 8, !tbaa !68
  %22 = load ptr, ptr %1, align 8, !tbaa !67
  tail call void %21(ptr noundef %22, i32 noundef 160, i32 noundef 255)
  ret void
}